-----BEGIN RSA PRIVATE KEY-----
Proc-Type: 4,ENCRYPTED
DEK-Info: AES-128-CBC,E4E5292458DDF04A8663841313FF02E0

caojcAXswZbot9yVDZkFcJ16VGHKAWuNzxywo3kPN4vv34IrNEbigS2JZWo1ol0r
FTGDnkTJ6N1Wa7Y8Ymk2a4GIP+JuToOs+gIVmCLGkfIZf+7sOVJENadCC1dEI50j
OKPyg+TloGEzD7USK12N4X9+c5+QdyRO2WHbU5IM3gcs5UtN1F4FBOEugqlAK/Ry
SLCIHoXJPmXsD6sPmfZwN7Mim0QnB6Z/H2yt1GrAUyZMZYfuxTzycxOlTYerYBOX
xrO6Q+Jni2y44sRJmJI2KaZJVtlHlUiOuP5R0Eckg+ltA8b9/8ObY8otCekPsqoo
wN/AfYZHZ6aLvVZ4di482sxNDbj0XLxhJTpZKLTBOVFCvSjlUE0hbeAhieCRECc0
YL652a7jx/uYl0pKVtZYCSqXayyyf+GD3/Ux324jDdQHBm+16R1VCqBiXr9I7jRq
SSZVk8PB0vz5OTvvQO/64AShoTj535pryKTwD0LaYHfXHtM2fhSOEfXIIwPsD1UV
0+/+dg72plhURrESaHVGQ4JyIw4fl+iVK4yza0HSkjaVv+r4UPk2MbBVqLpuL5Bv
4w2offhcbWSGtsEk/95mByAMhDjJMyCgXvYshYaHpbcGz+0WW1J8SyNhxanmmfAx
Z+RLQM7eTAEKO8u9KqU6n6kRbfcf+V50rVcgLsQXHUA1Hgvacbt6l09q3Wg7vbRm
s+vmwvHJjQ3OpgR0WT6i/KStg8PQfa17c9EXd9EwQkTzUSqnBD6DeIu3yIOhcp+P
wG1N7gpcmUkgn0Yp96brGQv5qcDDHw/L3/28FqWRKko5poGsT+arIBMtn6VnQtJq
-----END RSA PRIVATE KEY-----
Certificate:
    Data:
        Version: 3 (0x2)
        Serial Number: 4096 (0x1000)
    Signature Algorithm: sha256WithRSAEncryption
        Issuer: C=CN, ST=Beijing, L=Beijing, O=WYF, OU=WYF, CN=WangYifu/emailAddress=yifu.w@wustl.edu
        Validity
            Not Before: Dec  1 04:39:17 2018 GMT
            Not After : Dec  1 04:39:17 2019 GMT
        Subject: C=AU, ST=Some-State, O=Internet Widgits Pty Ltd, CN=SEEDPKILab2018.com
        Subject Public Key Info:
            Public Key Algorithm: rsaEncryption
                Public-Key: (1024 bit)
                Modulus:
                    00:bd:be:20:74:5d:ce:48:81:bb:dd:d0:25:bd:83:
                    aa:50:da:57:56:a0:a5:7f:a6:af:7e:87:71:3d:49:
                    ec:4a:9c:f7:e8:be:61:6f:ae:83:40:90:b8:8e:4b:
                    53:03:00:70:5a:54:8e:c2:c9:ba:7b:be:c9:67:c2:
                    88:ea:04:c9:56:f7:01:db:7b:d5:85:3a:53:e7:33:
                    9b:ac:3d:8d:5b:de:81:62:c2:bd:23:ec:5a:8d:ec:
                    72:38:94:ab:39:91:bf:88:bf:68:d4:81:80:76:64:
                    ad:1e:a2:05:db:10:84:3b:d5:66:0b:ee:57:65:9b:
                    0c:8d:8a:11:10:4f:13:f8:bf
                Exponent: 65537 (0x10001)
        X509v3 extensions:
            X509v3 Basic Constraints: 
                CA:FALSE
            Netscape Comment: 
                OpenSSL Generated Certificate
            X509v3 Subject Key Identifier: 
                FD:23:9B:35:9F:98:20:34:8E:6E:E3:22:93:AE:58:3E:A1:E1:AC:23
            X509v3 Authority Key Identifier: 
                keyid:29:67:43:D2:BA:F9:9A:DB:4C:69:87:4D:D5:64:2D:69:2A:EF:FE:36

    Signature Algorithm: sha256WithRSAEncryption
         07:48:d9:a1:2b:bb:d4:61:37:73:2d:e7:f9:e5:1d:2b:df:95:
         4c:0b:a7:ce:41:fc:7e:bd:7c:58:13:3f:c5:e3:c6:3e:9d:0a:
         fb:1e:79:ce:21:65:fc:57:e2:85:79:08:6b:50:e4:bb:9f:10:
         a3:32:d2:ff:99:7f:9b:85:22:29:a2:b7:23:22:81:bf:b2:b1:
         ae:0a:3f:a1:ce:60:79:ba:cb:91:32:6a:fe:65:ac:a0:1b:55:
         8c:34:c0:29:35:a0:52:64:fb:87:50:4c:71:36:55:d2:90:c3:
         a4:73:a2:4c:c8:2b:f3:ee:d7:de:4b:8c:cf:82:6a:74:b7:b3:
         a6:d0:6a:95:38:36:80:95:d5:d5:d7:3b:a6:81:a9:fa:38:83:
         56:56:aa:8f:a3:42:76:41:9e:0a:07:20:9c:36:7e:30:d3:49:
         97:80:ff:32:9d:dc:f1:7f:8e:54:da:37:34:85:fc:16:8a:75:
         e1:d2:e5:24:0a:dc:20:4b:b6:93:7d:48:2e:9d:25:3c:64:68:
         33:85:55:ca:8b:18:f2:06:f1:1e:62:14:ff:a8:d1:3c:81:e6:
         00:ab:e9:1b:13:e3:0a:bf:15:b1:fb:a9:4d:59:2b:e2:2b:d1:
         05:40:32:4e:05:34:f2:82:7a:76:66:43:96:3a:43:b9:56:dc:
         da:85:74:08
-----BEGIN CERTIFICATE-----
MIIDVzCCAj+gAwIBAgICEAAwDQYJKoZIhvcNAQELBQAwgYExCzAJBgNVBAYTAkNO
MRAwDgYDVQQIDAdCZWlqaW5nMRAwDgYDVQQHDAdCZWlqaW5nMQwwCgYDVQQKDANX
WUYxDDAKBgNVBAsMA1dZRjERMA8GA1UEAwwIV2FuZ1lpZnUxHzAdBgkqhkiG9w0B
CQEWEHlpZnUud0B3dXN0bC5lZHUwHhcNMTgxMjAxMDQzOTE3WhcNMTkxMjAxMDQz
OTE3WjBiMQswCQYDVQQGEwJBVTETMBEGA1UECAwKU29tZS1TdGF0ZTEhMB8GA1UE
CgwYSW50ZXJuZXQgV2lkZ2l0cyBQdHkgTHRkMRswGQYDVQQDDBJTRUVEUEtJTGFi
MjAxOC5jb20wgZ8wDQYJKoZIhvcNAQEBBQADgY0AMIGJAoGBAL2+IHRdzkiBu93Q
Jb2DqlDaV1agpX+mr36HcT1J7Eqc9+i+YW+ug0CQuI5LUwMAcFpUjsLJunu+yWfC
iOoEyVb3Adt71YU6U+czm6w9jVvegWLCvSPsWo3scjiUqzmRv4i/aNSBgHZkrR6i
BdsQhDvVZgvuV2WbDI2KERBPE/i/AgMBAAGjezB5MAkGA1UdEwQCMAAwLAYJYIZI
AYb4QgENBB8WHU9wZW5TU0wgR2VuZXJhdGVkIENlcnRpZmljYXRlMB0GA1UdDgQW
BBT9I5s1n5ggNI5u4yKTrlg+oeGsIzAfBgNVHSMEGDAWgBQpZ0PSuvma20xph03V
ZC1pKu/+NjANBgkqhkiG9w0BAQsFAAOCAQEAB0jZoSu71GE3cy3n+eUdK9+VTAun
zkH8fr18WBM/xePGPp0K+x55ziFl/FfihXkIa1Dku58QozLS/5l/m4UiKaK3IyKB
v7Kxrgo/oc5gebrLkTJq/mWsoBtVjDTAKTWgUmT7h1BMcTZV0pDDpHOiTMgr8+7X
3kuMz4JqdLezptBqlTg2gJXV1dc7poGp+jiDVlaqj6NCdkGeCgcgnDZ+MNNJl4D/
Mp3c8X+OVNo3NIX8Fop14dLlJArcIEu2k31ILp0lPGRoM4VVyosY8gbxHmIU/6jR
PIHmAKvpGxPjCr8VsfupTVkr4ivRBUAyTgU08oJ6dmZDljpDuVbc2oV0CA==
-----END CERTIFICATE-----
